target datalayout = "e-m:e-p270:32:32-p271:32:32-p272:64:64-i64:64-i128:128-f80:128-n8:16:32:64-S128"
target triple = "x86_64-pc-linux-gnu"

%"class.Eigen::symbolic::SymbolExpr" = type { i8 }
%"class.Eigen::symbolic::AddExpr" = type { [2 x i8] }
%"class.Eigen::internal::FixedInt" = type { i8 }
%"struct.Eigen::internal::all_t" = type { i8 }
%"class.Eigen::symbolic::ValueExpr" = type { i8 }

$_ZN5Eigen8symbolic10SymbolExprINS_8internal17symbolic_last_tagEEC2Ev = comdat any

$_ZNK5Eigen8symbolic8BaseExprINS0_10SymbolExprINS_8internal17symbolic_last_tagEEEEplILi1EEENS0_7AddExprIS5_NS0_9ValueExprINS3_8FixedIntIXT_EEEEEEESB_ = comdat any

$_ZNK5Eigen8internal8FixedIntILi1EEclEv = comdat any

$_ZN5Eigen8internal5all_tC2Ev = comdat any

$_ZN3igl10predicates23find_self_intersectionsIN5Eigen6MatrixIdLin1ELin1ELi0ELin1ELin1EEENS3_IiLin1ELin1ELi0ELin1ELin1EEES5_NS2_5ArrayIbLin1ELi1ELi0ELin1ELi1EEES4_S5_NS3_IiLin1ELi1ELi0ELin1ELi1EEEEEbRKNS2_10MatrixBaseIT_EERKNS9_IT0_EERNS2_15PlainObjectBaseIT1_EERNSI_IT2_EERNSI_IT3_EERNSI_IT4_EERNSI_IT5_EE = comdat any

$_ZN3igl10predicates23find_self_intersectionsIN5Eigen6MatrixIdLin1ELin1ELi0ELin1ELin1EEENS3_IiLin1ELin1ELi0ELin1ELin1EEES5_NS2_5ArrayIbLin1ELi1ELi0ELin1ELi1EEEEEbRKNS2_10MatrixBaseIT_EERKNS8_IT0_EEbRNS2_15PlainObjectBaseIT1_EERNSH_IT2_EE = comdat any

$_ZN5Eigen8internal8FixedIntILi1EEC2Ev = comdat any

$_ZNK5Eigen8symbolic8BaseExprINS0_10SymbolExprINS_8internal17symbolic_last_tagEEEE7derivedEv = comdat any

$_ZN5Eigen8symbolic9ValueExprINS_8internal8FixedIntILi1EEEEC2Ev = comdat any

$_ZN5Eigen8symbolic7AddExprINS0_10SymbolExprINS_8internal17symbolic_last_tagEEENS0_9ValueExprINS3_8FixedIntILi1EEEEEEC2ERKS5_RKS9_ = comdat any

@_ZN5EigenL4lastE = internal global %"class.Eigen::symbolic::SymbolExpr" zeroinitializer, align 1
@_ZN5EigenL6lastp1E = internal global %"class.Eigen::symbolic::AddExpr" zeroinitializer, align 1
@_ZN5EigenL3fixILi1EEE = internal global %"class.Eigen::internal::FixedInt" zeroinitializer, align 1
@_ZN5EigenL3allE = internal global %"struct.Eigen::internal::all_t" zeroinitializer, align 1
@llvm.global_ctors = appending global [2 x { i32, ptr, ptr }] [{ i32, ptr, ptr } { i32 65535, ptr @__cxx_global_var_init.3, ptr null }, { i32, ptr, ptr } { i32 65535, ptr @_GLOBAL__sub_I_find_self_intersections.cpp, ptr null }]

; Function Attrs: uwtable
define internal void @__cxx_global_var_init() #0 section ".text.startup" {
  call void @_ZN5Eigen8symbolic10SymbolExprINS_8internal17symbolic_last_tagEEC2Ev(ptr noundef nonnull align 1 dereferenceable(1) @_ZN5EigenL4lastE)
  %1 = call ptr @llvm.invariant.start.p0(i64 1, ptr @_ZN5EigenL4lastE)
  ret void
}

; Function Attrs: mustprogress nounwind uwtable
define linkonce_odr dso_local void @_ZN5Eigen8symbolic10SymbolExprINS_8internal17symbolic_last_tagEEC2Ev(ptr noundef nonnull align 1 dereferenceable(1) %0) unnamed_addr #1 comdat align 2 {
  %2 = alloca ptr, align 8
  store ptr %0, ptr %2, align 8, !tbaa !4
  ret void
}

; Function Attrs: nocallback nofree nosync nounwind willreturn memory(argmem: readwrite)
declare ptr @llvm.invariant.start.p0(i64 immarg, ptr captures(none)) #2

; Function Attrs: uwtable
define internal void @__cxx_global_var_init.1() #0 section ".text.startup" {
  call void @_ZNK5Eigen8internal8FixedIntILi1EEclEv(ptr noundef nonnull align 1 dereferenceable(1) @_ZN5EigenL3fixILi1EEE)
  call void @_ZNK5Eigen8symbolic8BaseExprINS0_10SymbolExprINS_8internal17symbolic_last_tagEEEEplILi1EEENS0_7AddExprIS5_NS0_9ValueExprINS3_8FixedIntIXT_EEEEEEESB_(ptr noundef nonnull align 1 dereferenceable(1) @_ZN5EigenL4lastE)
  %1 = call ptr @llvm.invariant.start.p0(i64 2, ptr @_ZN5EigenL6lastp1E)
  ret void
}

; Function Attrs: mustprogress uwtable
define linkonce_odr dso_local void @_ZNK5Eigen8symbolic8BaseExprINS0_10SymbolExprINS_8internal17symbolic_last_tagEEEEplILi1EEENS0_7AddExprIS5_NS0_9ValueExprINS3_8FixedIntIXT_EEEEEEESB_(ptr noundef nonnull align 1 dereferenceable(1) %0) #3 comdat align 2 {
  %2 = alloca %"class.Eigen::symbolic::AddExpr", align 1
  %3 = alloca ptr, align 8
  %4 = alloca %"class.Eigen::symbolic::ValueExpr", align 1
  store ptr %0, ptr %3, align 8, !tbaa !9
  %5 = load ptr, ptr %3, align 8
  %6 = call noundef nonnull align 1 dereferenceable(1) ptr @_ZNK5Eigen8symbolic8BaseExprINS0_10SymbolExprINS_8internal17symbolic_last_tagEEEE7derivedEv(ptr noundef nonnull align 1 dereferenceable(1) %5)
  call void @llvm.lifetime.start.p0(i64 1, ptr %4) #5
  call void @_ZN5Eigen8symbolic9ValueExprINS_8internal8FixedIntILi1EEEEC2Ev(ptr noundef nonnull align 1 dereferenceable(1) %4)
  call void @_ZN5Eigen8symbolic7AddExprINS0_10SymbolExprINS_8internal17symbolic_last_tagEEENS0_9ValueExprINS3_8FixedIntILi1EEEEEEC2ERKS5_RKS9_(ptr noundef nonnull align 1 dereferenceable(2) %2, ptr noundef nonnull align 1 dereferenceable(1) %6, ptr noundef nonnull align 1 dereferenceable(1) %4)
  call void @llvm.lifetime.end.p0(i64 1, ptr %4) #5
  ret void
}

; Function Attrs: mustprogress nounwind uwtable
define linkonce_odr dso_local void @_ZNK5Eigen8internal8FixedIntILi1EEclEv(ptr noundef nonnull align 1 dereferenceable(1) %0) #1 comdat align 2 {
  %2 = alloca ptr, align 8
  store ptr %0, ptr %2, align 8, !tbaa !11
  ret void
}

; Function Attrs: uwtable
define internal void @__cxx_global_var_init.2() #0 section ".text.startup" {
  call void @_ZN5Eigen8internal5all_tC2Ev(ptr noundef nonnull align 1 dereferenceable(1) @_ZN5EigenL3allE)
  %1 = call ptr @llvm.invariant.start.p0(i64 1, ptr @_ZN5EigenL3allE)
  ret void
}

; Function Attrs: mustprogress nounwind uwtable
define linkonce_odr dso_local void @_ZN5Eigen8internal5all_tC2Ev(ptr noundef nonnull align 1 dereferenceable(1) %0) unnamed_addr #1 comdat align 2 {
  %2 = alloca ptr, align 8
  store ptr %0, ptr %2, align 8, !tbaa !13
  ret void
}

; Function Attrs: mustprogress uwtable
define weak_odr dso_local noundef zeroext i1 @_ZN3igl10predicates23find_self_intersectionsIN5Eigen6MatrixIdLin1ELin1ELi0ELin1ELin1EEENS3_IiLin1ELin1ELi0ELin1ELin1EEES5_NS2_5ArrayIbLin1ELi1ELi0ELin1ELi1EEES4_S5_NS3_IiLin1ELi1ELi0ELin1ELi1EEEEEbRKNS2_10MatrixBaseIT_EERKNS9_IT0_EERNS2_15PlainObjectBaseIT1_EERNSI_IT2_EERNSI_IT3_EERNSI_IT4_EERNSI_IT5_EE(ptr noundef nonnull align 1 dereferenceable(1) %0, ptr noundef nonnull align 1 dereferenceable(1) %1, ptr noundef nonnull align 8 dereferenceable(24) %2, ptr noundef nonnull align 8 dereferenceable(16) %3, ptr noundef nonnull align 8 dereferenceable(24) %4, ptr noundef nonnull align 8 dereferenceable(24) %5, ptr noundef nonnull align 8 dereferenceable(16) %6) #3 comdat {
  %8 = alloca ptr, align 8
  %9 = alloca ptr, align 8
  %10 = alloca ptr, align 8
  %11 = alloca ptr, align 8
  %12 = alloca ptr, align 8
  %13 = alloca ptr, align 8
  %14 = alloca ptr, align 8
  store ptr %0, ptr %8, align 8, !tbaa !15
  store ptr %1, ptr %9, align 8, !tbaa !17
  store ptr %2, ptr %10, align 8, !tbaa !19
  store ptr %3, ptr %11, align 8, !tbaa !21
  store ptr %4, ptr %12, align 8, !tbaa !23
  store ptr %5, ptr %13, align 8, !tbaa !19
  store ptr %6, ptr %14, align 8, !tbaa !25
  %15 = load ptr, ptr %8, align 8, !tbaa !15
  %16 = load ptr, ptr %9, align 8, !tbaa !17
  %17 = load ptr, ptr %8, align 8, !tbaa !15
  %18 = load ptr, ptr %9, align 8, !tbaa !17
  %19 = load ptr, ptr %10, align 8, !tbaa !19
  %20 = load ptr, ptr %11, align 8, !tbaa !21
  %21 = load ptr, ptr %12, align 8, !tbaa !23
  %22 = load ptr, ptr %13, align 8, !tbaa !19
  %23 = load ptr, ptr %14, align 8, !tbaa !25
  %24 = call noundef zeroext i1 @_ZN3igl10predicates18find_intersectionsIN5Eigen6MatrixIdLin1ELin1ELi0ELin1ELin1EEENS3_IiLin1ELin1ELi0ELin1ELin1EEES4_S5_S5_NS2_5ArrayIbLin1ELi1ELi0ELin1ELi1EEES4_S5_NS3_IiLin1ELi1ELi0ELin1ELi1EEEEEbRKNS2_10MatrixBaseIT_EERKNS9_IT0_EERKNS9_IT1_EERKNS9_IT2_EERNS2_15PlainObjectBaseIT3_EERNSQ_IT4_EERNSQ_IT5_EERNSQ_IT6_EERNSQ_IT7_EE(ptr noundef nonnull align 1 dereferenceable(1) %15, ptr noundef nonnull align 1 dereferenceable(1) %16, ptr noundef nonnull align 1 dereferenceable(1) %17, ptr noundef nonnull align 1 dereferenceable(1) %18, ptr noundef nonnull align 8 dereferenceable(24) %19, ptr noundef nonnull align 8 dereferenceable(16) %20, ptr noundef nonnull align 8 dereferenceable(24) %21, ptr noundef nonnull align 8 dereferenceable(24) %22, ptr noundef nonnull align 8 dereferenceable(16) %23)
  ret i1 %24
}

declare noundef zeroext i1 @_ZN3igl10predicates18find_intersectionsIN5Eigen6MatrixIdLin1ELin1ELi0ELin1ELin1EEENS3_IiLin1ELin1ELi0ELin1ELin1EEES4_S5_S5_NS2_5ArrayIbLin1ELi1ELi0ELin1ELi1EEES4_S5_NS3_IiLin1ELi1ELi0ELin1ELi1EEEEEbRKNS2_10MatrixBaseIT_EERKNS9_IT0_EERKNS9_IT1_EERKNS9_IT2_EERNS2_15PlainObjectBaseIT3_EERNSQ_IT4_EERNSQ_IT5_EERNSQ_IT6_EERNSQ_IT7_EE(ptr noundef nonnull align 1 dereferenceable(1), ptr noundef nonnull align 1 dereferenceable(1), ptr noundef nonnull align 1 dereferenceable(1), ptr noundef nonnull align 1 dereferenceable(1), ptr noundef nonnull align 8 dereferenceable(24), ptr noundef nonnull align 8 dereferenceable(16), ptr noundef nonnull align 8 dereferenceable(24), ptr noundef nonnull align 8 dereferenceable(24), ptr noundef nonnull align 8 dereferenceable(16)) #4

; Function Attrs: mustprogress uwtable
define weak_odr dso_local noundef zeroext i1 @_ZN3igl10predicates23find_self_intersectionsIN5Eigen6MatrixIdLin1ELin1ELi0ELin1ELin1EEENS3_IiLin1ELin1ELi0ELin1ELin1EEES5_NS2_5ArrayIbLin1ELi1ELi0ELin1ELi1EEEEEbRKNS2_10MatrixBaseIT_EERKNS8_IT0_EEbRNS2_15PlainObjectBaseIT1_EERNSH_IT2_EE(ptr noundef nonnull align 1 dereferenceable(1) %0, ptr noundef nonnull align 1 dereferenceable(1) %1, i1 noundef zeroext %2, ptr noundef nonnull align 8 dereferenceable(24) %3, ptr noundef nonnull align 8 dereferenceable(16) %4) #3 comdat {
  %6 = alloca ptr, align 8
  %7 = alloca ptr, align 8
  %8 = alloca i8, align 1
  %9 = alloca ptr, align 8
  %10 = alloca ptr, align 8
  store ptr %0, ptr %6, align 8, !tbaa !15
  store ptr %1, ptr %7, align 8, !tbaa !17
  %11 = zext i1 %2 to i8
  store i8 %11, ptr %8, align 1, !tbaa !27
  store ptr %3, ptr %9, align 8, !tbaa !19
  store ptr %4, ptr %10, align 8, !tbaa !21
  %12 = load ptr, ptr %6, align 8, !tbaa !15
  %13 = load ptr, ptr %7, align 8, !tbaa !17
  %14 = load ptr, ptr %6, align 8, !tbaa !15
  %15 = load ptr, ptr %7, align 8, !tbaa !17
  %16 = load i8, ptr %8, align 1, !tbaa !27, !range !29, !noundef !30
  %17 = trunc i8 %16 to i1
  %18 = load ptr, ptr %9, align 8, !tbaa !19
  %19 = load ptr, ptr %10, align 8, !tbaa !21
  %20 = call noundef zeroext i1 @_ZN3igl10predicates18find_intersectionsIN5Eigen6MatrixIdLin1ELin1ELi0ELin1ELin1EEENS3_IiLin1ELin1ELi0ELin1ELin1EEES4_S5_S5_NS2_5ArrayIbLin1ELi1ELi0ELin1ELi1EEEEEbRKNS2_10MatrixBaseIT_EERKNS8_IT0_EERKNS8_IT1_EERKNS8_IT2_EEbRNS2_15PlainObjectBaseIT3_EERNSP_IT4_EE(ptr noundef nonnull align 1 dereferenceable(1) %12, ptr noundef nonnull align 1 dereferenceable(1) %13, ptr noundef nonnull align 1 dereferenceable(1) %14, ptr noundef nonnull align 1 dereferenceable(1) %15, i1 noundef zeroext %17, ptr noundef nonnull align 8 dereferenceable(24) %18, ptr noundef nonnull align 8 dereferenceable(16) %19)
  ret i1 %20
}

declare noundef zeroext i1 @_ZN3igl10predicates18find_intersectionsIN5Eigen6MatrixIdLin1ELin1ELi0ELin1ELin1EEENS3_IiLin1ELin1ELi0ELin1ELin1EEES4_S5_S5_NS2_5ArrayIbLin1ELi1ELi0ELin1ELi1EEEEEbRKNS2_10MatrixBaseIT_EERKNS8_IT0_EERKNS8_IT1_EERKNS8_IT2_EEbRNS2_15PlainObjectBaseIT3_EERNSP_IT4_EE(ptr noundef nonnull align 1 dereferenceable(1), ptr noundef nonnull align 1 dereferenceable(1), ptr noundef nonnull align 1 dereferenceable(1), ptr noundef nonnull align 1 dereferenceable(1), i1 noundef zeroext, ptr noundef nonnull align 8 dereferenceable(24), ptr noundef nonnull align 8 dereferenceable(16)) #4

; Function Attrs: uwtable
define internal void @__cxx_global_var_init.3() #0 section ".text.startup" {
  call void @_ZN5Eigen8internal8FixedIntILi1EEC2Ev(ptr noundef nonnull align 1 dereferenceable(1) @_ZN5EigenL3fixILi1EEE)
  %1 = call ptr @llvm.invariant.start.p0(i64 1, ptr @_ZN5EigenL3fixILi1EEE)
  ret void
}

; Function Attrs: mustprogress nounwind uwtable
define linkonce_odr dso_local void @_ZN5Eigen8internal8FixedIntILi1EEC2Ev(ptr noundef nonnull align 1 dereferenceable(1) %0) unnamed_addr #1 comdat align 2 {
  %2 = alloca ptr, align 8
  store ptr %0, ptr %2, align 8, !tbaa !11
  ret void
}

; Function Attrs: mustprogress nounwind uwtable
define linkonce_odr dso_local noundef nonnull align 1 dereferenceable(1) ptr @_ZNK5Eigen8symbolic8BaseExprINS0_10SymbolExprINS_8internal17symbolic_last_tagEEEE7derivedEv(ptr noundef nonnull align 1 dereferenceable(1) %0) #1 comdat align 2 {
  %2 = alloca ptr, align 8
  store ptr %0, ptr %2, align 8, !tbaa !9
  %3 = load ptr, ptr %2, align 8
  ret ptr %3
}

; Function Attrs: nocallback nofree nosync nounwind willreturn memory(argmem: readwrite)
declare void @llvm.lifetime.start.p0(i64 immarg, ptr captures(none)) #2

; Function Attrs: mustprogress nounwind uwtable
define linkonce_odr dso_local void @_ZN5Eigen8symbolic9ValueExprINS_8internal8FixedIntILi1EEEEC2Ev(ptr noundef nonnull align 1 dereferenceable(1) %0) unnamed_addr #1 comdat align 2 {
  %2 = alloca ptr, align 8
  store ptr %0, ptr %2, align 8, !tbaa !31
  ret void
}

; Function Attrs: mustprogress nounwind uwtable
define linkonce_odr dso_local void @_ZN5Eigen8symbolic7AddExprINS0_10SymbolExprINS_8internal17symbolic_last_tagEEENS0_9ValueExprINS3_8FixedIntILi1EEEEEEC2ERKS5_RKS9_(ptr noundef nonnull align 1 dereferenceable(2) %0, ptr noundef nonnull align 1 dereferenceable(1) %1, ptr noundef nonnull align 1 dereferenceable(1) %2) unnamed_addr #1 comdat align 2 {
  %4 = alloca ptr, align 8
  %5 = alloca ptr, align 8
  %6 = alloca ptr, align 8
  store ptr %0, ptr %4, align 8, !tbaa !33
  store ptr %1, ptr %5, align 8, !tbaa !4
  store ptr %2, ptr %6, align 8, !tbaa !31
  ret void
}

; Function Attrs: nocallback nofree nosync nounwind willreturn memory(argmem: readwrite)
declare void @llvm.lifetime.end.p0(i64 immarg, ptr captures(none)) #2

; Function Attrs: uwtable
define internal void @_GLOBAL__sub_I_find_self_intersections.cpp() #0 section ".text.startup" {
  call void @__cxx_global_var_init()
  call void @__cxx_global_var_init.1()
  call void @__cxx_global_var_init.2()
  ret void
}


!llvm.module.flags = !{!0, !1, !2, !3}

!0 = !{i32 1, !"wchar_size", i32 4}
!1 = !{i32 8, !"PIC Level", i32 2}
!2 = !{i32 7, !"PIE Level", i32 2}
!3 = !{i32 7, !"uwtable", i32 2}
!4 = !{!5, !5, i64 0}
!5 = !{!"p1 _ZTSN5Eigen8symbolic10SymbolExprINS_8internal17symbolic_last_tagEEE", !6, i64 0}
!6 = !{!"any pointer", !7, i64 0}
!7 = !{!"omnipotent char", !8, i64 0}
!8 = !{!"Simple C++ TBAA"}
!9 = !{!10, !10, i64 0}
!10 = !{!"p1 _ZTSN5Eigen8symbolic8BaseExprINS0_10SymbolExprINS_8internal17symbolic_last_tagEEEEE", !6, i64 0}
!11 = !{!12, !12, i64 0}
!12 = !{!"p1 _ZTSN5Eigen8internal8FixedIntILi1EEE", !6, i64 0}
!13 = !{!14, !14, i64 0}
!14 = !{!"p1 _ZTSN5Eigen8internal5all_tE", !6, i64 0}
!15 = !{!16, !16, i64 0}
!16 = !{!"p1 _ZTSN5Eigen10MatrixBaseINS_6MatrixIdLin1ELin1ELi0ELin1ELin1EEEEE", !6, i64 0}
!17 = !{!18, !18, i64 0}
!18 = !{!"p1 _ZTSN5Eigen10MatrixBaseINS_6MatrixIiLin1ELin1ELi0ELin1ELin1EEEEE", !6, i64 0}
!19 = !{!20, !20, i64 0}
!20 = !{!"p1 _ZTSN5Eigen15PlainObjectBaseINS_6MatrixIiLin1ELin1ELi0ELin1ELin1EEEEE", !6, i64 0}
!21 = !{!22, !22, i64 0}
!22 = !{!"p1 _ZTSN5Eigen15PlainObjectBaseINS_5ArrayIbLin1ELi1ELi0ELin1ELi1EEEEE", !6, i64 0}
!23 = !{!24, !24, i64 0}
!24 = !{!"p1 _ZTSN5Eigen15PlainObjectBaseINS_6MatrixIdLin1ELin1ELi0ELin1ELin1EEEEE", !6, i64 0}
!25 = !{!26, !26, i64 0}
!26 = !{!"p1 _ZTSN5Eigen15PlainObjectBaseINS_6MatrixIiLin1ELi1ELi0ELin1ELi1EEEEE", !6, i64 0}
!27 = !{!28, !28, i64 0}
!28 = !{!"bool", !7, i64 0}
!29 = !{i8 0, i8 2}
!30 = !{}
!31 = !{!32, !32, i64 0}
!32 = !{!"p1 _ZTSN5Eigen8symbolic9ValueExprINS_8internal8FixedIntILi1EEEEE", !6, i64 0}
!33 = !{!34, !34, i64 0}
!34 = !{!"p1 _ZTSN5Eigen8symbolic7AddExprINS0_10SymbolExprINS_8internal17symbolic_last_tagEEENS0_9ValueExprINS3_8FixedIntILi1EEEEEEE", !6, i64 0}
